Certificate:
    Data:
        Version: 3 (0x2)
        Serial Number:
            fa:83:35:9f:5f:98:2c:50
        Signature Algorithm: sha1WithRSAEncryption
        Issuer: C=DK, ST=Some-State, O=lin4schools, CN=Jakob Simon-Gaarde/emailAddress=jakob@simon-gaarde.dk
        Validity
            Not Before: Jul 15 21:59:44 2006 GMT
            Not After : Jul 15 21:59:44 2007 GMT
        Subject: C=DK, ST=Some-State, O=lin4schools, OU=Jakob Simon-Gaarde, CN=Jakob Simon-Gaarde/emailAddress=jakob@simon-gaarde.dk
        Subject Public Key Info:
            Public Key Algorithm: rsaEncryption
            RSA Public Key: (1024 bit)
                Modulus (1024 bit):
                    00:c5:af:7c:99:20:2b:b5:bc:04:6b:62:4d:7c:21:
                    5c:73:0e:2c:1b:60:71:e1:8c:f0:af:10:69:a5:c8:
                    5e:bd:04:aa:95:be:7f:03:6c:2d:85:f8:58:0c:65:
                    8a:68:e7:a8:24:a8:17:e3:d7:84:71:42:a9:94:7b:
                    0e:55:0d:a3:69:ba:25:6f:b1:5d:de:0d:cb:76:89:
                    f1:f7:bd:36:bf:85:a4:dc:42:09:aa:3a:a8:b5:77:
                    09:15:49:62:50:97:d7:fc:80:d4:df:0c:2e:92:dc:
                    da:3c:67:ea:e2:e7:3f:e6:dd:81:c0:b5:7c:0d:92:
                    09:c2:e3:be:7c:20:fc:48:67
                Exponent: 65537 (0x10001)
        X509v3 extensions:
            X509v3 Basic Constraints: 
                CA:FALSE
            Netscape Comment: 
                OpenSSL Generated Certificate
            X509v3 Subject Key Identifier: 
                15:9D:70:83:BA:AF:A0:CC:6B:1C:0F:43:4E:2C:0E:26:E3:9A:D9:17
            X509v3 Authority Key Identifier: 
                keyid:A6:54:DA:28:7F:1A:C4:33:FE:97:65:3D:17:D9:71:E5:28:A3:60:21

    Signature Algorithm: sha1WithRSAEncryption
        88:d9:d5:27:90:46:1a:a4:b7:ae:ab:69:b9:a7:44:c3:62:fb:
        3f:29:ee:24:61:5d:18:59:f8:b4:f1:4c:81:51:3e:5f:26:e5:
        ef:50:19:a6:f2:26:38:ce:18:43:30:b2:25:36:b7:88:77:a6:
        9f:1a:7e:3f:85:af:4c:a2:7d:e1:46:be:82:07:63:2a:96:ea:
        80:3e:91:82:1f:05:95:9c:a8:62:bb:67:e9:cf:6e:70:42:6d:
        9e:20:4f:24:9a:0d:f2:df:78:38:ce:a5:fb:4e:90:95:c9:11:
        15:66:ce:df:34:5d:03:4a:30:b3:5d:94:de:1e:92:62:7c:8f:
        af:d5
-----BEGIN CERTIFICATE-----
MIIDDTCCAnagAwIBAgIJAPqDNZ9fmCxQMA0GCSqGSIb3DQEBBQUAMHsxCzAJBgNV
BAYTAkRLMRMwEQYDVQQIEwpTb21lLVN0YXRlMRQwEgYDVQQKEwtsaW40c2Nob29s
czEbMBkGA1UEAxMSSmFrb2IgU2ltb24tR2FhcmRlMSQwIgYJKoZIhvcNAQkBFhVq
YWtvYkBzaW1vbi1nYWFyZGUuZGswHhcNMDYwNzE1MjE1OTQ0WhcNMDcwNzE1MjE1
OTQ0WjCBmDELMAkGA1UEBhMCREsxEzARBgNVBAgTClNvbWUtU3RhdGUxFDASBgNV
BAoTC2xpbjRzY2hvb2xzMRswGQYDVQQLExJKYWtvYiBTaW1vbi1HYWFyZGUxGzAZ
BgNVBAMTEkpha29iIFNpbW9uLUdhYXJkZTEkMCIGCSqGSIb3DQEJARYVamFrb2JA
c2ltb24tZ2FhcmRlLmRrMIGfMA0GCSqGSIb3DQEBAQUAA4GNADCBiQKBgQDFr3yZ
ICu1vARrYk18IVxzDiwbYHHhjPCvEGmlyF69BKqVvn8DbC2F+FgMZYpo56gkqBfj
14RxQqmUew5VDaNpuiVvsV3eDct2ifH3vTa/haTcQgmqOqi1dwkVSWJQl9f8gNTf
DC6S3No8Z+ri5z/m3YHAtXwNkgnC4758IPxIZwIDAQABo3sweTAJBgNVHRMEAjAA
MCwGCWCGSAGG+EIBDQQfFh1PcGVuU1NMIEdlbmVyYXRlZCBDZXJ0aWZpY2F0ZTAd
BgNVHQ4EFgQUFZ1wg7qvoMxrHA9DTiwOJuOa2RcwHwYDVR0jBBgwFoAUplTaKH8a
xDP+l2U9F9lx5SijYCEwDQYJKoZIhvcNAQEFBQADgYEAiNnVJ5BGGqS3rqtpuadE
w2L7PynuJGFdGFn4tPFMgVE+Xybl71AZpvImOM4YQzCyJTa3iHemnxp+P4WvTKJ9
4Ua+ggdjKpbqgD6Rgh8FlZyoYrtn6c9ucEJtniBPJJoN8t94OM6l+06QlckRFWbO
3zRdA0ows12U3h6SYnyPr9U=
-----END CERTIFICATE-----
